target datalayout = "e-m:e-p270:32:32-p271:32:32-p272:64:64-i64:64-i128:128-f80:128-n8:16:32:64-S128"
target triple = "x86_64-pc-linux-gnu"

@__const.hash_init_with_dom.dom_s = private unnamed_addr constant [33 x i8] c"SigEd25519 no Ed25519 collisions\00", align 16

; Function Attrs: nounwind uwtable
define internal i32 @hash_init_with_dom(ptr noundef %0, ptr noundef %1, i8 noundef zeroext %2, i8 noundef zeroext %3, ptr noundef %4, i64 noundef %5) #0 {
  %7 = alloca i32, align 4
  %8 = alloca ptr, align 8
  %9 = alloca ptr, align 8
  %10 = alloca i8, align 1
  %11 = alloca i8, align 1
  %12 = alloca ptr, align 8
  %13 = alloca i64, align 8
  %14 = alloca [33 x i8], align 16
  %15 = alloca [2 x i8], align 1
  %16 = alloca i32, align 4
  store ptr %0, ptr %8, align 8, !tbaa !15
  store ptr %1, ptr %9, align 8, !tbaa !13
  store i8 %2, ptr %10, align 1, !tbaa !10
  store i8 %3, ptr %11, align 1, !tbaa !10
  store ptr %4, ptr %12, align 8, !tbaa !3
  store i64 %5, ptr %13, align 8, !tbaa !8
  call void @llvm.lifetime.start.p0(i64 33, ptr %14) #6
  call void @llvm.memcpy.p0.p0.i64(ptr align 16 %14, ptr align 16 @__const.hash_init_with_dom.dom_s, i64 33, i1 false)
  call void @llvm.lifetime.start.p0(i64 2, ptr %15) #6
  %17 = load ptr, ptr %8, align 8, !tbaa !15
  %18 = load ptr, ptr %9, align 8, !tbaa !13
  %19 = call i32 @EVP_DigestInit_ex(ptr noundef %17, ptr noundef %18, ptr noundef null)
  %20 = icmp ne i32 %19, 0
  br i1 %20, label %22, label %21

21:                                               ; preds = %6
  store i32 0, ptr %7, align 4
  store i32 1, ptr %16, align 4
  br label %57

22:                                               ; preds = %6
  %23 = load i8, ptr %10, align 1, !tbaa !10
  %24 = icmp ne i8 %23, 0
  br i1 %24, label %26, label %25

25:                                               ; preds = %22
  store i32 1, ptr %7, align 4
  store i32 1, ptr %16, align 4
  br label %57

26:                                               ; preds = %22
  %27 = load i64, ptr %13, align 8, !tbaa !8
  %28 = icmp ugt i64 %27, 255
  br i1 %28, label %29, label %30

29:                                               ; preds = %26
  store i32 0, ptr %7, align 4
  store i32 1, ptr %16, align 4
  br label %57

30:                                               ; preds = %26
  %31 = load i8, ptr %11, align 1, !tbaa !10
  %32 = zext i8 %31 to i32
  %33 = icmp sge i32 %32, 1
  %34 = select i1 %33, i32 1, i32 0
  %35 = trunc i32 %34 to i8
  %36 = getelementptr inbounds [2 x i8], ptr %15, i64 0, i64 0
  store i8 %35, ptr %36, align 1, !tbaa !10
  %37 = load i64, ptr %13, align 8, !tbaa !8
  %38 = trunc i64 %37 to i8
  %39 = getelementptr inbounds [2 x i8], ptr %15, i64 0, i64 1
  store i8 %38, ptr %39, align 1, !tbaa !10
  %40 = load ptr, ptr %8, align 8, !tbaa !15
  %41 = getelementptr inbounds [33 x i8], ptr %14, i64 0, i64 0
  %42 = call i32 @EVP_DigestUpdate(ptr noundef %40, ptr noundef %41, i64 noundef 32)
  %43 = icmp ne i32 %42, 0
  br i1 %43, label %44, label %55

44:                                               ; preds = %30
  %45 = load ptr, ptr %8, align 8, !tbaa !15
  %46 = getelementptr inbounds [2 x i8], ptr %15, i64 0, i64 0
  %47 = call i32 @EVP_DigestUpdate(ptr noundef %45, ptr noundef %46, i64 noundef 2)
  %48 = icmp ne i32 %47, 0
  br i1 %48, label %49, label %55

49:                                               ; preds = %44
  %50 = load ptr, ptr %8, align 8, !tbaa !15
  %51 = load ptr, ptr %12, align 8, !tbaa !3
  %52 = load i64, ptr %13, align 8, !tbaa !8
  %53 = call i32 @EVP_DigestUpdate(ptr noundef %50, ptr noundef %51, i64 noundef %52)
  %54 = icmp ne i32 %53, 0
  br i1 %54, label %56, label %55

55:                                               ; preds = %49, %44, %30
  store i32 0, ptr %7, align 4
  store i32 1, ptr %16, align 4
  br label %57

56:                                               ; preds = %49
  store i32 1, ptr %7, align 4
  store i32 1, ptr %16, align 4
  br label %57

57:                                               ; preds = %56, %55, %29, %25, %21
  call void @llvm.lifetime.end.p0(i64 2, ptr %15) #6
  call void @llvm.lifetime.end.p0(i64 33, ptr %14) #6
  %58 = load i32, ptr %7, align 4
  ret i32 %58
}