; Function Attrs: nounwind uwtable
define internal fastcc range(i32 0, 2) i32 @hash_init_with_dom(ptr noundef nonnull %0, ptr noundef nonnull %1, i8 noundef zeroext %2, i8 noundef zeroext %3, ptr noundef %4, i64 noundef %5) unnamed_addr #0 {
  %7 = alloca [33 x i8], align 16
  %8 = alloca [2 x i8], align 1
  call void @llvm.lifetime.start.p0(i64 33, ptr nonnull %7) #9
  call void @llvm.memcpy.p0.p0.i64(ptr noundef nonnull align 16 dereferenceable(33) %7, ptr noundef nonnull align 16 dereferenceable(33) @__const.hash_init_with_dom.dom_s, i64 33, i1 false)
  call void @llvm.lifetime.start.p0(i64 2, ptr nonnull %8) #9
  %9 = tail call i32 @EVP_DigestInit_ex(ptr noundef nonnull %0, ptr noundef nonnull %1, ptr noundef null) #9
  %.not = icmp eq i32 %9, 0
  br i1 %.not, label %22, label %10

10:                                               ; preds = %6
  %.not12 = icmp eq i8 %2, 0
  br i1 %.not12, label %22, label %11

11:                                               ; preds = %10
  %12 = icmp ugt i64 %5, 255
  br i1 %12, label %22, label %13

13:                                               ; preds = %11
  %.not13 = icmp ne i8 %3, 0
  %14 = zext i1 %.not13 to i8
  store i8 %14, ptr %8, align 1, !tbaa !3
  %15 = trunc nuw i64 %5 to i8
  %16 = getelementptr inbounds nuw i8, ptr %8, i64 1
  store i8 %15, ptr %16, align 1, !tbaa !3
  %17 = call i32 @EVP_DigestUpdate(ptr noundef nonnull %0, ptr noundef nonnull %7, i64 noundef 32) #9
  %.not14 = icmp eq i32 %17, 0
  br i1 %.not14, label %22, label %18

18:                                               ; preds = %13
  %19 = call i32 @EVP_DigestUpdate(ptr noundef nonnull %0, ptr noundef nonnull %8, i64 noundef 2) #9
  %.not15 = icmp eq i32 %19, 0
  br i1 %.not15, label %22, label %20

20:                                               ; preds = %18
  %21 = call i32 @EVP_DigestUpdate(ptr noundef nonnull %0, ptr noundef %4, i64 noundef %5) #9
  %.not16 = icmp ne i32 %21, 0
  %spec.select = zext i1 %.not16 to i32
  br label %22

22:                                               ; preds = %20, %13, %18, %11, %10, %6
  %.0 = phi i32 [ 0, %6 ], [ 1, %10 ], [ 0, %11 ], [ 0, %18 ], [ 0, %13 ], [ %spec.select, %20 ]
  call void @llvm.lifetime.end.p0(i64 2, ptr nonnull %8) #9
  call void @llvm.lifetime.end.p0(i64 33, ptr nonnull %7) #9
  ret i32 %.0
}